# SymbolsHelper-Confirmed: 4:5.69.0 amd64
libKF5Contacts.so.5 libkf5contacts5 #MINVER#
* Build-Depends-Package: libkf5contacts-dev
 _ZN9KContacts10FieldGroup13setParametersERK4QMapI7QString11QStringListE@Base 4:5.69.0
 _ZN9KContacts10FieldGroup17setFieldGroupNameERK7QString@Base 4:5.69.0
 _ZN9KContacts10FieldGroup8setValueERK7QString@Base 4:5.69.0
 _ZN9KContacts10FieldGroup9setParamsERKNS_12ParameterMapE@Base 5:5.88.0
 _ZN9KContacts10FieldGroupC1ERK7QString@Base 4:5.69.0
 _ZN9KContacts10FieldGroupC1ERKS0_@Base 4:5.69.0
 _ZN9KContacts10FieldGroupC1Ev@Base 4:5.69.0
 _ZN9KContacts10FieldGroupC2ERK7QString@Base 4:5.69.0
 _ZN9KContacts10FieldGroupC2ERKS0_@Base 4:5.69.0
 _ZN9KContacts10FieldGroupC2Ev@Base 4:5.69.0
 _ZN9KContacts10FieldGroupD1Ev@Base 4:5.69.0
 _ZN9KContacts10FieldGroupD2Ev@Base 4:5.69.0
 _ZN9KContacts10FieldGroupaSERKS0_@Base 4:5.69.0
 _ZN9KContacts11CalendarUrl13setParametersERK4QMapI7QString11QStringListE@Base 4:5.69.0
 _ZN9KContacts11CalendarUrl6setUrlERK4QUrl@Base 4:5.69.0
 _ZN9KContacts11CalendarUrl7setTypeENS0_12CalendarTypeE@Base 4:5.69.0
 _ZN9KContacts11CalendarUrl9setParamsERKNS_12ParameterMapE@Base 5:5.88.0
 _ZN9KContacts11CalendarUrlC1ENS0_12CalendarTypeE@Base 4:5.69.0
 _ZN9KContacts11CalendarUrlC1ERKS0_@Base 4:5.69.0
 _ZN9KContacts11CalendarUrlC1Ev@Base 4:5.69.0
 _ZN9KContacts11CalendarUrlC2ENS0_12CalendarTypeE@Base 4:5.69.0
 _ZN9KContacts11CalendarUrlC2ERKS0_@Base 4:5.69.0
 _ZN9KContacts11CalendarUrlC2Ev@Base 4:5.69.0
 _ZN9KContacts11CalendarUrlD1Ev@Base 4:5.69.0
 _ZN9KContacts11CalendarUrlD2Ev@Base 4:5.69.0
 _ZN9KContacts11CalendarUrlaSERKS0_@Base 4:5.69.0
 _ZN9KContacts11PhoneNumber13setParametersERK4QMapI7QString11QStringListE@Base 4:5.69.0
 _ZN9KContacts11PhoneNumber13typeFlagLabelENS0_8TypeFlagE@Base 4:5.69.0
 _ZN9KContacts11PhoneNumber16staticMetaObjectE@Base 4:5.69.0
 _ZN9KContacts11PhoneNumber5setIdERK7QString@Base 4:5.69.0
 _ZN9KContacts11PhoneNumber7setTypeE6QFlagsINS0_8TypeFlagEE@Base 4:5.69.0
 _ZN9KContacts11PhoneNumber8typeListEv@Base 4:5.69.0
 _ZN9KContacts11PhoneNumber9setNumberERK7QString@Base 4:5.69.0
 _ZN9KContacts11PhoneNumber9setParamsERKNS_12ParameterMapE@Base 5:5.88.0
 _ZN9KContacts11PhoneNumber9typeLabelE6QFlagsINS0_8TypeFlagEE@Base 4:5.69.0
 _ZN9KContacts11PhoneNumberC1ERK7QString6QFlagsINS0_8TypeFlagEE@Base 4:5.69.0
 _ZN9KContacts11PhoneNumberC1ERKS0_@Base 4:5.69.0
 _ZN9KContacts11PhoneNumberC1Ev@Base 4:5.69.0
 _ZN9KContacts11PhoneNumberC2ERK7QString6QFlagsINS0_8TypeFlagEE@Base 4:5.69.0
 _ZN9KContacts11PhoneNumberC2ERKS0_@Base 4:5.69.0
 _ZN9KContacts11PhoneNumberC2Ev@Base 4:5.69.0
 _ZN9KContacts11PhoneNumberD1Ev@Base 4:5.69.0
 _ZN9KContacts11PhoneNumberD2Ev@Base 4:5.69.0
 _ZN9KContacts11PhoneNumberaSERKS0_@Base 4:5.69.0
 _ZN9KContacts12ClientPidMap13setParametersERK4QMapI7QString11QStringListE@Base 4:5.69.0
 _ZN9KContacts12ClientPidMap15setClientPidMapERK7QString@Base 4:5.69.0
 _ZN9KContacts12ClientPidMap9setParamsERKNS_12ParameterMapE@Base 5:5.88.0
 _ZN9KContacts12ClientPidMapC1ERK7QString@Base 4:5.69.0
 _ZN9KContacts12ClientPidMapC1ERKS0_@Base 4:5.69.0
 _ZN9KContacts12ClientPidMapC1Ev@Base 4:5.69.0
 _ZN9KContacts12ClientPidMapC2ERK7QString@Base 4:5.69.0
 _ZN9KContacts12ClientPidMapC2ERKS0_@Base 4:5.69.0
 _ZN9KContacts12ClientPidMapC2Ev@Base 4:5.69.0
 _ZN9KContacts12ClientPidMapD1Ev@Base 4:5.69.0
 _ZN9KContacts12ClientPidMapD2Ev@Base 4:5.69.0
 _ZN9KContacts12ClientPidMapaSERKS0_@Base 4:5.69.0
 _ZN9KContacts12ContactGroup16ContactReference12insertCustomERK7QStringS4_@Base 4:5.69.0
 _ZN9KContacts12ContactGroup16ContactReference12removeCustomERK7QString@Base 4:5.69.0
 _ZN9KContacts12ContactGroup16ContactReference17setPreferredEmailERK7QString@Base 4:5.69.0
 _ZN9KContacts12ContactGroup16ContactReference6setGidERK7QString@Base 4:5.69.0
 _ZN9KContacts12ContactGroup16ContactReference6setUidERK7QString@Base 4:5.69.0
 _ZN9KContacts12ContactGroup16ContactReferenceC1ERK7QString@Base 4:5.69.0
 _ZN9KContacts12ContactGroup16ContactReferenceC1ERKS1_@Base 4:5.69.0
 _ZN9KContacts12ContactGroup16ContactReferenceC1Ev@Base 4:5.69.0
 _ZN9KContacts12ContactGroup16ContactReferenceC2ERK7QString@Base 4:5.69.0
 _ZN9KContacts12ContactGroup16ContactReferenceC2ERKS1_@Base 4:5.69.0
 _ZN9KContacts12ContactGroup16ContactReferenceC2Ev@Base 4:5.69.0
 _ZN9KContacts12ContactGroup16ContactReferenceD1Ev@Base 4:5.69.0
 _ZN9KContacts12ContactGroup16ContactReferenceD2Ev@Base 4:5.69.0
 _ZN9KContacts12ContactGroup16ContactReferenceaSERKS1_@Base 4:5.69.0
 _ZN9KContacts12ContactGroup16contactReferenceEi@Base 4:5.69.0
 _ZN9KContacts12ContactGroup20removeAllContactDataEv@Base 4:5.69.0
 _ZN9KContacts12ContactGroup21ContactGroupReference12insertCustomERK7QStringS4_@Base 4:5.69.0
 _ZN9KContacts12ContactGroup21ContactGroupReference12removeCustomERK7QString@Base 4:5.69.0
 _ZN9KContacts12ContactGroup21ContactGroupReference6setUidERK7QString@Base 4:5.69.0
 _ZN9KContacts12ContactGroup21ContactGroupReferenceC1ERK7QString@Base 4:5.69.0
 _ZN9KContacts12ContactGroup21ContactGroupReferenceC1ERKS1_@Base 4:5.69.0
 _ZN9KContacts12ContactGroup21ContactGroupReferenceC1Ev@Base 4:5.69.0
 _ZN9KContacts12ContactGroup21ContactGroupReferenceC2ERK7QString@Base 4:5.69.0
 _ZN9KContacts12ContactGroup21ContactGroupReferenceC2ERKS1_@Base 4:5.69.0
 _ZN9KContacts12ContactGroup21ContactGroupReferenceC2Ev@Base 4:5.69.0
 _ZN9KContacts12ContactGroup21ContactGroupReferenceD1Ev@Base 4:5.69.0
 _ZN9KContacts12ContactGroup21ContactGroupReferenceD2Ev@Base 4:5.69.0
 _ZN9KContacts12ContactGroup21ContactGroupReferenceaSERKS1_@Base 4:5.69.0
 _ZN9KContacts12ContactGroup21contactGroupReferenceEi@Base 4:5.69.0
 _ZN9KContacts12ContactGroup26removeAllContactReferencesEv@Base 4:5.69.0
 _ZN9KContacts12ContactGroup31removeAllContactGroupReferencesEv@Base 4:5.69.0
 _ZN9KContacts12ContactGroup4Data12insertCustomERK7QStringS4_@Base 4:5.69.0
 _ZN9KContacts12ContactGroup4Data12removeCustomERK7QString@Base 4:5.69.0
 _ZN9KContacts12ContactGroup4Data7setNameERK7QString@Base 4:5.69.0
 _ZN9KContacts12ContactGroup4Data8setEmailERK7QString@Base 4:5.69.0
 _ZN9KContacts12ContactGroup4DataC1ERK7QStringS4_@Base 4:5.69.0
 _ZN9KContacts12ContactGroup4DataC1ERKS1_@Base 4:5.69.0
 _ZN9KContacts12ContactGroup4DataC1Ev@Base 4:5.69.0
 _ZN9KContacts12ContactGroup4DataC2ERK7QStringS4_@Base 4:5.69.0
 _ZN9KContacts12ContactGroup4DataC2ERKS1_@Base 4:5.69.0
 _ZN9KContacts12ContactGroup4DataC2Ev@Base 4:5.69.0
 _ZN9KContacts12ContactGroup4DataD1Ev@Base 4:5.69.0
 _ZN9KContacts12ContactGroup4DataD2Ev@Base 4:5.69.0
 _ZN9KContacts12ContactGroup4DataaSERKS1_@Base 4:5.69.0
 _ZN9KContacts12ContactGroup4dataEi@Base 4:5.69.0
 _ZN9KContacts12ContactGroup5setIdERK7QString@Base 4:5.69.0
 _ZN9KContacts12ContactGroup6appendERKNS0_16ContactReferenceE@Base 4:5.69.0
 _ZN9KContacts12ContactGroup6appendERKNS0_21ContactGroupReferenceE@Base 4:5.69.0
 _ZN9KContacts12ContactGroup6appendERKNS0_4DataE@Base 4:5.69.0
 _ZN9KContacts12ContactGroup6removeERKNS0_16ContactReferenceE@Base 4:5.69.0
 _ZN9KContacts12ContactGroup6removeERKNS0_21ContactGroupReferenceE@Base 4:5.69.0
 _ZN9KContacts12ContactGroup6removeERKNS0_4DataE@Base 4:5.69.0
 _ZN9KContacts12ContactGroup7setNameERK7QString@Base 4:5.69.0
 _ZN9KContacts12ContactGroup8mimeTypeEv@Base 4:5.69.0
 _ZN9KContacts12ContactGroupC1ERK7QString@Base 4:5.69.0
 _ZN9KContacts12ContactGroupC1ERKS0_@Base 4:5.69.0
 _ZN9KContacts12ContactGroupC1Ev@Base 4:5.69.0
 _ZN9KContacts12ContactGroupC2ERK7QString@Base 4:5.69.0
 _ZN9KContacts12ContactGroupC2ERKS0_@Base 4:5.69.0
 _ZN9KContacts12ContactGroupC2Ev@Base 4:5.69.0
 _ZN9KContacts12ContactGroupD1Ev@Base 4:5.69.0
 _ZN9KContacts12ContactGroupD2Ev@Base 4:5.69.0
 _ZN9KContacts12ContactGroupaSERKS0_@Base 4:5.69.0
 _ZN9KContacts13AddressFormat16staticMetaObjectE@Base 5:5.93.0
 _ZN9KContacts13AddressFormatC1ERKS0_@Base 5:5.93.0
 _ZN9KContacts13AddressFormatC1Ev@Base 5:5.93.0
 _ZN9KContacts13AddressFormatC2ERKS0_@Base 5:5.93.0
 _ZN9KContacts13AddressFormatC2Ev@Base 5:5.93.0
 _ZN9KContacts13AddressFormatD1Ev@Base 5:5.93.0
 _ZN9KContacts13AddressFormatD2Ev@Base 5:5.93.0
 _ZN9KContacts13AddressFormataSERKS0_@Base 5:5.93.0
 _ZN9KContacts13LDIFConverter15LDIFToAddresseeERK7QStringR7QVectorINS_9AddresseeEERS4_INS_12ContactGroupEERK9QDateTime@Base 4:5.69.0
 _ZN9KContacts13LDIFConverter15addresseeToLDIFERK7QVectorINS_9AddresseeEER7QString@Base 4:5.69.0
 _ZN9KContacts13LDIFConverter15addresseeToLDIFERKNS_9AddresseeER7QString@Base 4:5.69.0
 _ZN9KContacts13LDIFConverter18contactGroupToLDIFERK7QVectorINS_12ContactGroupEER7QString@Base 4:5.69.0
 _ZN9KContacts13LDIFConverter18contactGroupToLDIFERKNS_12ContactGroupER7QString@Base 4:5.69.0
 _ZN9KContacts13LDIFConverter30addresseeAndContactGroupToLDIFERK7QVectorINS_9AddresseeEERKS1_INS_12ContactGroupEER7QString@Base 4:5.69.0
 _ZN9KContacts14VCardConverterC1Ev@Base 4:5.69.0
 _ZN9KContacts14VCardConverterC2Ev@Base 4:5.69.0
 _ZN9KContacts14VCardConverterD1Ev@Base 4:5.69.0
 _ZN9KContacts14VCardConverterD2Ev@Base 4:5.69.0
 _ZN9KContacts15AddresseeHelper11qt_metacallEN11QMetaObject4CallEiPPv@Base 4:5.69.0
 _ZN9KContacts15AddresseeHelper11qt_metacastEPKc@Base 4:5.69.0
 _ZN9KContacts15AddresseeHelper12initSettingsEv@Base 4:5.69.0
 _ZN9KContacts15AddresseeHelper16staticMetaObjectE@Base 4:5.69.0
 _ZN9KContacts15AddresseeHelper4selfEv@Base 4:5.69.0
 _ZN9KContacts15AddresseeHelperC1Ev@Base 4:5.69.0
 _ZN9KContacts15AddresseeHelperC2Ev@Base 4:5.69.0
 _ZN9KContacts15AddresseeHelperD0Ev@Base 4:5.69.0
 _ZN9KContacts15AddresseeHelperD1Ev@Base 4:5.69.0
 _ZN9KContacts15AddresseeHelperD2Ev@Base 4:5.69.0
 _ZN9KContacts16ContactGroupTool12convertToXmlERK7QVectorINS_12ContactGroupEEP9QIODeviceP7QString@Base 4:5.69.0
 _ZN9KContacts16ContactGroupTool12convertToXmlERKNS_12ContactGroupEP9QIODeviceP7QString@Base 4:5.69.0
 _ZN9KContacts16ContactGroupTool14convertFromXmlEP9QIODeviceR7QVectorINS_12ContactGroupEEP7QString@Base 4:5.69.0
 _ZN9KContacts16ContactGroupTool14convertFromXmlEP9QIODeviceRNS_12ContactGroupEP7QString@Base 4:5.69.0
 _ZN9KContacts16staticMetaObjectE@Base 5:5.93.0
 _ZN9KContacts17VCardStringToDateERK7QString@Base 4:5.69.0
 _ZN9KContacts17adaptIMAttributesER10QByteArray@Base 4:5.69.0
 _ZN9KContacts17dateToVCardStringE5QDate@Base 4:5.69.0
 _ZN9KContacts17dateToVCardStringERK9QDateTime@Base 4:5.69.0
 _ZN9KContacts18ResourceLocatorUrl12setPreferredEb@Base 4:5.69.0
 _ZN9KContacts18ResourceLocatorUrl13setParametersERK4QMapI7QString11QStringListE@Base 4:5.69.0
 _ZN9KContacts18ResourceLocatorUrl16staticMetaObjectE@Base 4:5.69.0
 _ZN9KContacts18ResourceLocatorUrl6setUrlERK4QUrl@Base 4:5.69.0
 _ZN9KContacts18ResourceLocatorUrl7setTypeE6QFlagsINS0_8TypeFlagEE@Base 4:5.69.0
 _ZN9KContacts18ResourceLocatorUrl9setParamsERKNS_12ParameterMapE@Base 5:5.88.0
 _ZN9KContacts18ResourceLocatorUrlC1ERKS0_@Base 4:5.69.0
 _ZN9KContacts18ResourceLocatorUrlC1Ev@Base 4:5.69.0
 _ZN9KContacts18ResourceLocatorUrlC2ERKS0_@Base 4:5.69.0
 _ZN9KContacts18ResourceLocatorUrlC2Ev@Base 4:5.69.0
 _ZN9KContacts18ResourceLocatorUrlD1Ev@Base 4:5.69.0
 _ZN9KContacts18ResourceLocatorUrlD2Ev@Base 4:5.69.0
 _ZN9KContacts18ResourceLocatorUrlaSERKS0_@Base 4:5.69.0
 _ZN9KContacts20AddressFormatElement16staticMetaObjectE@Base 5:5.93.0
 _ZN9KContacts20AddressFormatElementC1ERKS0_@Base 5:5.93.0
 _ZN9KContacts20AddressFormatElementC1Ev@Base 5:5.93.0
 _ZN9KContacts20AddressFormatElementC2ERKS0_@Base 5:5.93.0
 _ZN9KContacts20AddressFormatElementC2Ev@Base 5:5.93.0
 _ZN9KContacts20AddressFormatElementD1Ev@Base 5:5.93.0
 _ZN9KContacts20AddressFormatElementD2Ev@Base 5:5.93.0
 _ZN9KContacts20AddressFormatElementaSERKS0_@Base 5:5.93.0
 _ZN9KContacts23AddressFormatRepository16formatForAddressERKNS_7AddressENS_23AddressFormatPreferenceE@Base 5:5.93.0
 _ZN9KContacts23AddressFormatRepository16formatForCountryERK7QStringNS_29AddressFormatScriptPreferenceENS_23AddressFormatPreferenceE@Base 5:5.93.0
 _ZN9KContacts23AddressFormatRepository16staticMetaObjectE@Base 5:5.93.0
 _ZN9KContacts3Geo11setLatitudeEf@Base 4:5.69.0
 _ZN9KContacts3Geo12setLongitudeEf@Base 4:5.69.0
 _ZN9KContacts3Geo16staticMetaObjectE@Base 4:5.69.0
 _ZN9KContacts3Geo5clearEv@Base 4:5.69.0
 _ZN9KContacts3GeoC1ERKS0_@Base 4:5.69.0
 _ZN9KContacts3GeoC1Eff@Base 4:5.69.0
 _ZN9KContacts3GeoC1Ev@Base 4:5.69.0
 _ZN9KContacts3GeoC2ERKS0_@Base 4:5.69.0
 _ZN9KContacts3GeoC2Eff@Base 4:5.69.0
 _ZN9KContacts3GeoC2Ev@Base 4:5.69.0
 _ZN9KContacts3GeoD1Ev@Base 4:5.69.0
 _ZN9KContacts3GeoD2Ev@Base 4:5.69.0
 _ZN9KContacts3GeoaSERKS0_@Base 4:5.69.0
 _ZN9KContacts3Key11setTextDataERK7QString@Base 4:5.69.0
 _ZN9KContacts3Key13setBinaryDataERK10QByteArray@Base 4:5.69.0
 _ZN9KContacts3Key19setCustomTypeStringERK7QString@Base 4:5.69.0
 _ZN9KContacts3Key5setIdERK7QString@Base 4:5.69.0
 _ZN9KContacts3Key7setTypeENS0_4TypeE@Base 4:5.69.0
 _ZN9KContacts3Key8typeListEv@Base 4:5.69.0
 _ZN9KContacts3Key9typeLabelENS0_4TypeE@Base 4:5.69.0
 _ZN9KContacts3KeyC1ERK7QStringNS0_4TypeE@Base 4:5.69.0
 _ZN9KContacts3KeyC1ERKS0_@Base 4:5.69.0
 _ZN9KContacts3KeyC2ERK7QStringNS0_4TypeE@Base 4:5.69.0
 _ZN9KContacts3KeyC2ERKS0_@Base 4:5.69.0
 _ZN9KContacts3KeyD1Ev@Base 4:5.69.0
 _ZN9KContacts3KeyD2Ev@Base 4:5.69.0
 _ZN9KContacts3KeyaSERKS0_@Base 4:5.69.0
 _ZN9KContacts3Org13setParametersERK4QMapI7QString11QStringListE@Base 4:5.69.0
 _ZN9KContacts3Org15setOrganizationERK7QString@Base 4:5.69.0
 _ZN9KContacts3Org9setParamsERKNS_12ParameterMapE@Base 5:5.88.0
 _ZN9KContacts3OrgC1ERK7QString@Base 4:5.69.0
 _ZN9KContacts3OrgC1ERKS0_@Base 4:5.69.0
 _ZN9KContacts3OrgC1Ev@Base 4:5.69.0
 _ZN9KContacts3OrgC2ERK7QString@Base 4:5.69.0
 _ZN9KContacts3OrgC2ERKS0_@Base 4:5.69.0
 _ZN9KContacts3OrgC2Ev@Base 4:5.69.0
 _ZN9KContacts3OrgD1Ev@Base 4:5.69.0
 _ZN9KContacts3OrgD2Ev@Base 4:5.69.0
 _ZN9KContacts3OrgaSERKS0_@Base 4:5.69.0
 _ZN9KContacts4Impp10setAddressERK4QUrl@Base 4:5.69.0
 _ZN9KContacts4Impp11serviceIconERK7QString@Base 4:5.69.0
 _ZN9KContacts4Impp12serviceLabelERK7QString@Base 4:5.69.0
 _ZN9KContacts4Impp12serviceTypesEv@Base 4:5.69.0
 _ZN9KContacts4Impp12setPreferredEb@Base 4:5.69.0
 _ZN9KContacts4Impp13setParametersERK4QMapI7QString11QStringListE@Base 4:5.69.0
 _ZN9KContacts4Impp16staticMetaObjectE@Base 4:5.69.0
 _ZN9KContacts4Impp9setParamsERKNS_12ParameterMapE@Base 5:5.88.0
 _ZN9KContacts4ImppC1ERK4QUrl@Base 4:5.69.0
 _ZN9KContacts4ImppC1ERKS0_@Base 4:5.69.0
 _ZN9KContacts4ImppC1Ev@Base 4:5.69.0
 _ZN9KContacts4ImppC2ERK4QUrl@Base 4:5.69.0
 _ZN9KContacts4ImppC2ERKS0_@Base 4:5.69.0
 _ZN9KContacts4ImppC2Ev@Base 4:5.69.0
 _ZN9KContacts4ImppD1Ev@Base 4:5.69.0
 _ZN9KContacts4ImppD2Ev@Base 4:5.69.0
 _ZN9KContacts4ImppaSERKS0_@Base 4:5.69.0
 _ZN9KContacts4Lang11setLanguageERK7QString@Base 4:5.69.0
 _ZN9KContacts4Lang13setParametersERK4QMapI7QString11QStringListE@Base 4:5.69.0
 _ZN9KContacts4Lang9setParamsERKNS_12ParameterMapE@Base 5:5.88.0
 _ZN9KContacts4LangC1ERK7QString@Base 4:5.69.0
 _ZN9KContacts4LangC1ERKS0_@Base 4:5.69.0
 _ZN9KContacts4LangC1Ev@Base 4:5.69.0
 _ZN9KContacts4LangC2ERK7QString@Base 4:5.69.0
 _ZN9KContacts4LangC2ERKS0_@Base 4:5.69.0
 _ZN9KContacts4LangC2Ev@Base 4:5.69.0
 _ZN9KContacts4LangD1Ev@Base 4:5.69.0
 _ZN9KContacts4LangD2Ev@Base 4:5.69.0
 _ZN9KContacts4LangaSERKS0_@Base 4:5.69.0
 _ZN9KContacts4Note13setParametersERK4QMapI7QString11QStringListE@Base 4:5.69.0
 _ZN9KContacts4Note7setNoteERK7QString@Base 4:5.69.0
 _ZN9KContacts4Note9setParamsERKNS_12ParameterMapE@Base 5:5.88.0
 _ZN9KContacts4NoteC1ERK7QString@Base 4:5.69.0
 _ZN9KContacts4NoteC1ERKS0_@Base 4:5.69.0
 _ZN9KContacts4NoteC1Ev@Base 4:5.69.0
 _ZN9KContacts4NoteC2ERK7QString@Base 4:5.69.0
 _ZN9KContacts4NoteC2ERKS0_@Base 4:5.69.0
 _ZN9KContacts4NoteC2Ev@Base 4:5.69.0
 _ZN9KContacts4NoteD1Ev@Base 4:5.69.0
 _ZN9KContacts4NoteD2Ev@Base 4:5.69.0
 _ZN9KContacts4NoteaSERKS0_@Base 4:5.69.0
 _ZN9KContacts4Role13setParametersERK4QMapI7QString11QStringListE@Base 4:5.69.0
 _ZN9KContacts4Role7setRoleERK7QString@Base 4:5.69.0
 _ZN9KContacts4Role9setParamsERKNS_12ParameterMapE@Base 5:5.88.0
 _ZN9KContacts4RoleC1ERK7QString@Base 4:5.69.0
 _ZN9KContacts4RoleC1ERKS0_@Base 4:5.69.0
 _ZN9KContacts4RoleC1Ev@Base 4:5.69.0
 _ZN9KContacts4RoleC2ERK7QString@Base 4:5.69.0
 _ZN9KContacts4RoleC2ERKS0_@Base 4:5.69.0
 _ZN9KContacts4RoleC2Ev@Base 4:5.69.0
 _ZN9KContacts4RoleD1Ev@Base 4:5.69.0
 _ZN9KContacts4RoleD2Ev@Base 4:5.69.0
 _ZN9KContacts4RoleaSERKS0_@Base 4:5.69.0
 _ZN9KContacts5Email12setPreferredEb@Base 4:5.69.0
 _ZN9KContacts5Email13setParametersERK4QMapI7QString11QStringListE@Base 4:5.69.0
 _ZN9KContacts5Email16staticMetaObjectE@Base 4:5.69.0
 _ZN9KContacts5Email7setTypeE6QFlagsINS0_8TypeFlagEE@Base 4:5.69.0
 _ZN9KContacts5Email8setEmailERK7QString@Base 4:5.69.0
 _ZN9KContacts5Email9setParamsERKNS_12ParameterMapE@Base 5:5.88.0
 _ZN9KContacts5EmailC1ERK7QString@Base 4:5.69.0
 _ZN9KContacts5EmailC1ERKS0_@Base 4:5.69.0
 _ZN9KContacts5EmailC1Ev@Base 4:5.69.0
 _ZN9KContacts5EmailC2ERK7QString@Base 4:5.69.0
 _ZN9KContacts5EmailC2ERKS0_@Base 4:5.69.0
 _ZN9KContacts5EmailC2Ev@Base 4:5.69.0
 _ZN9KContacts5EmailD1Ev@Base 4:5.69.0
 _ZN9KContacts5EmailD2Ev@Base 4:5.69.0
 _ZN9KContacts5EmailaSERKS0_@Base 4:5.69.0
 _ZN9KContacts5Field10saveFieldsER12KConfigGroupRK7QStringRK5QListIPS0_E@Base 4:5.69.0
 _ZN9KContacts5Field10saveFieldsERK7QStringRK5QListIPS0_E@Base 4:5.69.0
 _ZN9KContacts5Field11createFieldEii@Base 4:5.69.0
 _ZN9KContacts5Field12deleteFieldsEv@Base 4:5.69.0
 _ZN9KContacts5Field13categoryLabelEi@Base 4:5.69.0
 _ZN9KContacts5Field13defaultFieldsEv@Base 4:5.69.0
 _ZN9KContacts5Field13restoreFieldsERK12KConfigGroupRK7QString@Base 4:5.69.0
 _ZN9KContacts5Field13restoreFieldsERK7QString@Base 4:5.69.0
 _ZN9KContacts5Field17createCustomFieldERK7QStringiS3_S3_@Base 4:5.69.0
 _ZN9KContacts5Field18createDefaultFieldEii@Base 4:5.69.0
 _ZN9KContacts5Field5labelEv@Base 4:5.69.0
 _ZN9KContacts5Field5valueERKNS_9AddresseeE@Base 4:5.69.0
 _ZN9KContacts5Field6equalsEPS0_@Base 4:5.69.0
 _ZN9KContacts5Field7sortKeyERKNS_9AddresseeE@Base 4:5.69.0
 _ZN9KContacts5Field8categoryEv@Base 4:5.69.0
 _ZN9KContacts5Field8isCustomEv@Base 4:5.69.0
 _ZN9KContacts5Field8setValueERNS_9AddresseeERK7QString@Base 4:5.69.0
 _ZN9KContacts5Field9allFieldsEv@Base 4:5.69.0
 _ZN9KContacts5FieldC1EPNS0_7PrivateE@Base 4:5.69.0
 _ZN9KContacts5FieldC2EPNS0_7PrivateE@Base 4:5.69.0
 _ZN9KContacts5FieldD0Ev@Base 4:5.69.0
 _ZN9KContacts5FieldD1Ev@Base 4:5.69.0
 _ZN9KContacts5FieldD2Ev@Base 4:5.69.0
 _ZN9KContacts5Sound6setUrlERK7QString@Base 4:5.69.0
 _ZN9KContacts5Sound7setDataERK10QByteArray@Base 4:5.69.0
 _ZN9KContacts5SoundC1ERK10QByteArray@Base 4:5.69.0
 _ZN9KContacts5SoundC1ERK7QString@Base 4:5.69.0
 _ZN9KContacts5SoundC1ERKS0_@Base 4:5.69.0
 _ZN9KContacts5SoundC1Ev@Base 4:5.69.0
 _ZN9KContacts5SoundC2ERK10QByteArray@Base 4:5.69.0
 _ZN9KContacts5SoundC2ERK7QString@Base 4:5.69.0
 _ZN9KContacts5SoundC2ERKS0_@Base 4:5.69.0
 _ZN9KContacts5SoundC2Ev@Base 4:5.69.0
 _ZN9KContacts5SoundD1Ev@Base 4:5.69.0
 _ZN9KContacts5SoundD2Ev@Base 4:5.69.0
 _ZN9KContacts5SoundaSERKS0_@Base 4:5.69.0
 _ZN9KContacts5Title13setParametersERK4QMapI7QString11QStringListE@Base 4:5.69.0
 _ZN9KContacts5Title8setTitleERK7QString@Base 4:5.69.0
 _ZN9KContacts5Title9setParamsERKNS_12ParameterMapE@Base 5:5.88.0
 _ZN9KContacts5TitleC1ERK7QString@Base 4:5.69.0
 _ZN9KContacts5TitleC1ERKS0_@Base 4:5.69.0
 _ZN9KContacts5TitleC1Ev@Base 4:5.69.0
 _ZN9KContacts5TitleC2ERK7QString@Base 4:5.69.0
 _ZN9KContacts5TitleC2ERKS0_@Base 4:5.69.0
 _ZN9KContacts5TitleC2Ev@Base 4:5.69.0
 _ZN9KContacts5TitleD1Ev@Base 4:5.69.0
 _ZN9KContacts5TitleD2Ev@Base 4:5.69.0
 _ZN9KContacts5TitleaSERKS0_@Base 4:5.69.0
 _ZN9KContacts6Gender10setCommentERK7QString@Base 4:5.69.0
 _ZN9KContacts6Gender9setGenderERK7QString@Base 4:5.69.0
 _ZN9KContacts6GenderC1ERK7QString@Base 4:5.69.0
 _ZN9KContacts6GenderC1ERKS0_@Base 4:5.69.0
 _ZN9KContacts6GenderC1Ev@Base 4:5.69.0
 _ZN9KContacts6GenderC2ERK7QString@Base 4:5.69.0
 _ZN9KContacts6GenderC2ERKS0_@Base 4:5.69.0
 _ZN9KContacts6GenderC2Ev@Base 4:5.69.0
 _ZN9KContacts6GenderD1Ev@Base 4:5.69.0
 _ZN9KContacts6GenderD2Ev@Base 4:5.69.0
 _ZN9KContacts6GenderaSERKS0_@Base 4:5.69.0
 _ZN9KContacts7Address10labelLabelEv@Base 4:5.69.0
 _ZN9KContacts7Address10setCountryERK7QString@Base 4:5.69.0
 _ZN9KContacts7Address11regionLabelEv@Base 4:5.69.0
 _ZN9KContacts7Address11setExtendedERK7QString@Base 4:5.69.0
 _ZN9KContacts7Address11setLocalityERK7QString@Base 4:5.69.0
 _ZN9KContacts7Address11streetLabelEv@Base 4:5.69.0
 _ZN9KContacts7Address12ISOtoCountryERK7QString@Base 4:5.69.0
 _ZN9KContacts7Address12countryLabelEv@Base 4:5.69.0
 _ZN9KContacts7Address12countryToISOERK7QString@Base 4:5.69.0
 _ZN9KContacts7Address13extendedLabelEv@Base 4:5.69.0
 _ZN9KContacts7Address13localityLabelEv@Base 4:5.69.0
 _ZN9KContacts7Address13setPostalCodeERK7QString@Base 4:5.69.0
 _ZN9KContacts7Address13typeFlagLabelENS0_8TypeFlagE@Base 4:5.69.0
 _ZN9KContacts7Address15postalCodeLabelEv@Base 4:5.69.0
 _ZN9KContacts7Address16setPostOfficeBoxERK7QString@Base 4:5.69.0
 _ZN9KContacts7Address16staticMetaObjectE@Base 4:5.69.0
 _ZN9KContacts7Address18postOfficeBoxLabelEv@Base 4:5.69.0
 _ZN9KContacts7Address5clearEv@Base 4:5.69.0
 _ZN9KContacts7Address5setIdERK7QString@Base 4:5.69.0
 _ZN9KContacts7Address6setGeoERKNS_3GeoE@Base 4:5.69.0
 _ZN9KContacts7Address7setTypeE6QFlagsINS0_8TypeFlagEE@Base 4:5.69.0
 _ZN9KContacts7Address8setLabelERK7QString@Base 4:5.69.0
 _ZN9KContacts7Address8typeListEv@Base 4:5.69.0
 _ZN9KContacts7Address9setRegionERK7QString@Base 4:5.69.0
 _ZN9KContacts7Address9setStreetERK7QString@Base 4:5.69.0
 _ZN9KContacts7Address9typeLabelE6QFlagsINS0_8TypeFlagEE@Base 4:5.69.0
 _ZN9KContacts7AddressC1E6QFlagsINS0_8TypeFlagEE@Base 4:5.69.0
 _ZN9KContacts7AddressC1ERKS0_@Base 4:5.69.0
 _ZN9KContacts7AddressC1Ev@Base 4:5.69.0
 _ZN9KContacts7AddressC2E6QFlagsINS0_8TypeFlagEE@Base 4:5.69.0
 _ZN9KContacts7AddressC2ERKS0_@Base 4:5.69.0
 _ZN9KContacts7AddressC2Ev@Base 4:5.69.0
 _ZN9KContacts7AddressD1Ev@Base 4:5.69.0
 _ZN9KContacts7AddressD2Ev@Base 4:5.69.0
 _ZN9KContacts7AddressaSERKS0_@Base 4:5.69.0
 _ZN9KContacts7Picture10setRawDataERK10QByteArrayRK7QString@Base 4:5.69.0
 _ZN9KContacts7Picture16staticMetaObjectE@Base 5:5.83.0
 _ZN9KContacts7Picture6setUrlERK7QString@Base 4:5.69.0
 _ZN9KContacts7Picture6setUrlERK7QStringS3_@Base 4:5.69.0
 _ZN9KContacts7Picture7setDataERK6QImage@Base 4:5.69.0
 _ZN9KContacts7PictureC1ERK6QImage@Base 4:5.69.0
 _ZN9KContacts7PictureC1ERK7QString@Base 4:5.69.0
 _ZN9KContacts7PictureC1ERKS0_@Base 4:5.69.0
 _ZN9KContacts7PictureC1Ev@Base 4:5.69.0
 _ZN9KContacts7PictureC2ERK6QImage@Base 4:5.69.0
 _ZN9KContacts7PictureC2ERK7QString@Base 4:5.69.0
 _ZN9KContacts7PictureC2ERKS0_@Base 4:5.69.0
 _ZN9KContacts7PictureC2Ev@Base 4:5.69.0
 _ZN9KContacts7PictureD1Ev@Base 4:5.69.0
 _ZN9KContacts7PictureD2Ev@Base 4:5.69.0
 _ZN9KContacts7PictureaSERKS0_@Base 4:5.69.0
 _ZN9KContacts7Related10setRelatedERK7QString@Base 4:5.69.0
 _ZN9KContacts7Related13setParametersERK4QMapI7QString11QStringListE@Base 4:5.69.0
 _ZN9KContacts7Related9setParamsERKNS_12ParameterMapE@Base 5:5.88.0
 _ZN9KContacts7RelatedC1ERK7QString@Base 4:5.69.0
 _ZN9KContacts7RelatedC1ERKS0_@Base 4:5.69.0
 _ZN9KContacts7RelatedC1Ev@Base 4:5.69.0
 _ZN9KContacts7RelatedC2ERK7QString@Base 4:5.69.0
 _ZN9KContacts7RelatedC2ERKS0_@Base 4:5.69.0
 _ZN9KContacts7RelatedC2Ev@Base 4:5.69.0
 _ZN9KContacts7RelatedD1Ev@Base 4:5.69.0
 _ZN9KContacts7RelatedD2Ev@Base 4:5.69.0
 _ZN9KContacts7RelatedaSERKS0_@Base 4:5.69.0
 _ZN9KContacts7Secrecy7setTypeENS0_4TypeE@Base 4:5.69.0
 _ZN9KContacts7Secrecy8typeListEv@Base 4:5.69.0
 _ZN9KContacts7Secrecy9typeLabelENS0_4TypeE@Base 4:5.69.0
 _ZN9KContacts7SecrecyC1ENS0_4TypeE@Base 4:5.69.0
 _ZN9KContacts7SecrecyC1ERKS0_@Base 4:5.69.0
 _ZN9KContacts7SecrecyC2ENS0_4TypeE@Base 4:5.69.0
 _ZN9KContacts7SecrecyC2ERKS0_@Base 4:5.69.0
 _ZN9KContacts7SecrecyD1Ev@Base 4:5.69.0
 _ZN9KContacts7SecrecyD2Ev@Base 4:5.69.0
 _ZN9KContacts7SecrecyaSERKS0_@Base 4:5.69.0
 _ZN9KContacts8NickName11setNickNameERK7QString@Base 4:5.69.0
 _ZN9KContacts8NickName13setParametersERK4QMapI7QString11QStringListE@Base 4:5.69.0
 _ZN9KContacts8NickName9setParamsERKNS_12ParameterMapE@Base 5:5.88.0
 _ZN9KContacts8NickNameC1ERK7QString@Base 4:5.69.0
 _ZN9KContacts8NickNameC1ERKS0_@Base 4:5.69.0
 _ZN9KContacts8NickNameC1Ev@Base 4:5.69.0
 _ZN9KContacts8NickNameC2ERK7QString@Base 4:5.69.0
 _ZN9KContacts8NickNameC2ERKS0_@Base 4:5.69.0
 _ZN9KContacts8NickNameC2Ev@Base 4:5.69.0
 _ZN9KContacts8NickNameD1Ev@Base 4:5.69.0
 _ZN9KContacts8NickNameD2Ev@Base 4:5.69.0
 _ZN9KContacts8NickNameaSERKS0_@Base 4:5.69.0
 _ZN9KContacts8TimeZone9setOffsetEi@Base 4:5.69.0
 _ZN9KContacts8TimeZoneC1ERKS0_@Base 4:5.69.0
 _ZN9KContacts8TimeZoneC1Ei@Base 4:5.69.0
 _ZN9KContacts8TimeZoneC1Ev@Base 4:5.69.0
 _ZN9KContacts8TimeZoneC2ERKS0_@Base 4:5.69.0
 _ZN9KContacts8TimeZoneC2Ei@Base 4:5.69.0
 _ZN9KContacts8TimeZoneC2Ev@Base 4:5.69.0
 _ZN9KContacts8TimeZoneD1Ev@Base 4:5.69.0
 _ZN9KContacts8TimeZoneD2Ev@Base 4:5.69.0
 _ZN9KContacts8TimeZoneaSERKS0_@Base 4:5.69.0
 _ZN9KContacts9Addressee10emailLabelEv@Base 4:5.69.0
 _ZN9KContacts9Addressee10insertImppERKNS_4ImppE@Base 4:5.69.0
 _ZN9KContacts9Addressee10insertLangERKNS_4LangE@Base 4:5.69.0
 _ZN9KContacts9Addressee10pagerLabelEv@Base 4:5.69.0
 _ZN9KContacts9Addressee10photoLabelEv@Base 4:5.69.0
 _ZN9KContacts9Addressee10removeLangERK7QString@Base 4:5.69.0
 _ZN9KContacts9Addressee10setChangedEb@Base 4:5.69.0
 _ZN9KContacts9Addressee10setCustomsERK11QStringList@Base 4:5.69.0
 _ZN9KContacts9Addressee10setMembersERK11QStringList@Base 4:5.69.0
 _ZN9KContacts9Addressee10setSecrecyERKNS_7SecrecyE@Base 4:5.69.0
 _ZN9KContacts9Addressee10soundLabelEv@Base 4:5.69.0
 _ZN9KContacts9Addressee10titleLabelEv@Base 4:5.69.0
 _ZN9KContacts9Addressee11insertEmailERK7QStringbRK4QMapIS1_11QStringListE@Base 4:5.69.0
 _ZN9KContacts9Addressee11mailerLabelEv@Base 4:5.69.0
 _ZN9KContacts9Addressee11prefixLabelEv@Base 4:5.69.0
 _ZN9KContacts9Addressee11removeEmailERK7QString@Base 4:5.69.0
 _ZN9KContacts9Addressee11setBirthdayERK5QDate@Base 4:5.69.0
 _ZN9KContacts9Addressee11setBirthdayERK9QDateTimeb@Base 4:5.69.0
 _ZN9KContacts9Addressee11setBlogFeedERK4QUrl@Base 4:5.69.0
 _ZN9KContacts9Addressee11setImppListERK7QVectorINS_4ImppEE@Base 4:5.69.0
 _ZN9KContacts9Addressee11setNickNameERK7QString@Base 4:5.69.0
 _ZN9KContacts9Addressee11setNickNameERKNS_8NickNameE@Base 4:5.69.0
 _ZN9KContacts9Addressee11setRevisionERK9QDateTime@Base 4:5.69.0
 _ZN9KContacts9Addressee11setTimeZoneERKNS_8TimeZoneE@Base 4:5.69.0
 _ZN9KContacts9Addressee11suffixLabelEv@Base 4:5.69.0
 _ZN9KContacts9Addressee12homeFaxLabelEv@Base 4:5.69.0
 _ZN9KContacts9Addressee12insertCustomERK7QStringS3_S3_@Base 4:5.69.0
 _ZN9KContacts9Addressee12insertMemberERK7QString@Base 4:5.69.0
 _ZN9KContacts9Addressee12removeCustomERK7QStringS3_@Base 4:5.69.0
 _ZN9KContacts9Addressee12secrecyLabelEv@Base 4:5.69.0
 _ZN9KContacts9Addressee12setAddressesERK7QVectorINS_7AddressEE@Base 5:5.100.0
 _ZN9KContacts9Addressee12setEmailListERK7QVectorINS_5EmailEE@Base 4:5.69.0
 _ZN9KContacts9Addressee12setGivenNameERK7QString@Base 4:5.69.0
 _ZN9KContacts9Addressee12setProductIdERK7QString@Base 4:5.69.0
 _ZN9KContacts9Addressee13birthdayLabelEv@Base 4:5.69.0
 _ZN9KContacts9Addressee13carPhoneLabelEv@Base 4:5.69.0
 _ZN9KContacts9Addressee13insertAddressERKNS_7AddressE@Base 4:5.69.0
 _ZN9KContacts9Addressee13nickNameLabelEv@Base 4:5.69.0
 _ZN9KContacts9Addressee13removeAddressERKNS_7AddressE@Base 4:5.69.0
 _ZN9KContacts9Addressee13revisionLabelEv@Base 4:5.69.0
 _ZN9KContacts9Addressee13setCategoriesERK11QStringList@Base 4:5.69.0
 _ZN9KContacts9Addressee13setDepartmentERK7QString@Base 4:5.69.0
 _ZN9KContacts9Addressee13setFamilyNameERK7QString@Base 4:5.69.0
 _ZN9KContacts9Addressee13setProfessionERK7QString@Base 4:5.69.0
 _ZN9KContacts9Addressee13setSortStringERK7QString@Base 4:5.69.0
 _ZN9KContacts9Addressee13timeZoneLabelEv@Base 4:5.69.0
 _ZN9KContacts9Addressee14givenNameLabelEv@Base 4:5.69.0
 _ZN9KContacts9Addressee14homePhoneLabelEv@Base 4:5.69.0
 _ZN9KContacts9Addressee14insertCategoryERK7QString@Base 4:5.69.0
 _ZN9KContacts9Addressee14insertExtraUrlERKNS_18ResourceLocatorUrlE@Base 4:5.69.0
 _ZN9KContacts9Addressee14productIdLabelEv@Base 4:5.69.0
 _ZN9KContacts9Addressee14removeCategoryERK7QString@Base 4:5.69.0
 _ZN9KContacts9Addressee14setAnniversaryERK5QDate@Base 4:5.69.0
 _ZN9KContacts9Addressee14setSpousesNameERK7QString@Base 4:5.69.0
 _ZN9KContacts9Addressee15departmentLabelEv@Base 4:5.69.0
 _ZN9KContacts9Addressee15familyNameLabelEv@Base 4:5.69.0
 _ZN9KContacts9Addressee15insertExtraLogoERKNS_7PictureE@Base 4:5.69.0
 _ZN9KContacts9Addressee15insertExtraRoleERKNS_4RoleE@Base 4:5.69.0
 _ZN9KContacts9Addressee15insertSourceUrlERK4QUrl@Base 4:5.69.0
 _ZN9KContacts9Addressee15setExtraUrlListERK7QVectorINS_18ResourceLocatorUrlEE@Base 4:5.69.0
 _ZN9KContacts9Addressee15setImppsVariantERK5QListI8QVariantE@Base 5:5.83.0
 _ZN9KContacts9Addressee15setManagersNameERK7QString@Base 4:5.69.0
 _ZN9KContacts9Addressee15setOrganizationERK7QString@Base 4:5.69.0
 _ZN9KContacts9Addressee15setOrganizationERKNS_3OrgE@Base 4:5.69.0
 _ZN9KContacts9Addressee15setPhoneNumbersERK7QVectorINS_11PhoneNumberEE@Base 4:5.69.0
 _ZN9KContacts9Addressee15sortStringLabelEv@Base 4:5.69.0
 _ZN9KContacts9Addressee16businessFaxLabelEv@Base 4:5.69.0
 _ZN9KContacts9Addressee16insertExtraPhotoERKNS_7PictureE@Base 4:5.69.0
 _ZN9KContacts9Addressee16insertExtraSoundERKNS_5SoundE@Base 4:5.69.0
 _ZN9KContacts9Addressee16insertExtraTitleERKNS_5TitleE@Base 4:5.69.0
 _ZN9KContacts9Addressee16insertFieldGroupERKNS_10FieldGroupE@Base 4:5.69.0
 _ZN9KContacts9Addressee16mobilePhoneLabelEv@Base 4:5.69.0
 _ZN9KContacts9Addressee16setEmailsVariantERK5QListI8QVariantE@Base 5:5.83.0
 _ZN9KContacts9Addressee16setExtraLogoListERK7QVectorINS_7PictureEE@Base 4:5.69.0
 _ZN9KContacts9Addressee16setExtraRoleListERK7QVectorINS_4RoleEE@Base 4:5.69.0
 _ZN9KContacts9Addressee16setFormattedNameERK7QString@Base 4:5.69.0
 _ZN9KContacts9Addressee16setRelationshipsERK7QVectorINS_7RelatedEE@Base 4:5.69.0
 _ZN9KContacts9Addressee16staticMetaObjectE@Base 4:5.69.0
 _ZN9KContacts9Addressee17insertCalendarUrlERKNS_11CalendarUrlE@Base 4:5.69.0
 _ZN9KContacts9Addressee17insertPhoneNumberERKNS_11PhoneNumberE@Base 4:5.69.0
 _ZN9KContacts9Addressee17organizationLabelEv@Base 4:5.69.0
 _ZN9KContacts9Addressee17parseEmailAddressERK7QStringRS1_S4_@Base 4:5.69.0
 _ZN9KContacts9Addressee17removePhoneNumberERKNS_11PhoneNumberE@Base 4:5.69.0
 _ZN9KContacts9Addressee17setAdditionalNameERK7QString@Base 4:5.69.0
 _ZN9KContacts9Addressee17setAssistantsNameERK7QString@Base 4:5.69.0
 _ZN9KContacts9Addressee17setExtraPhotoListERK7QVectorINS_7PictureEE@Base 4:5.69.0
 _ZN9KContacts9Addressee17setExtraSoundListERK7QVectorINS_5SoundEE@Base 4:5.69.0
 _ZN9KContacts9Addressee17setExtraTitleListERK7QVectorINS_5TitleEE@Base 4:5.69.0
 _ZN9KContacts9Addressee17setFieldGroupListERK7QVectorINS_10FieldGroupEE@Base 4:5.69.0
 _ZN9KContacts9Addressee17setNameFromStringERK7QString@Base 4:5.69.0
 _ZN9KContacts9Addressee17setSourcesUrlListERK7QVectorI4QUrlE@Base 4:5.69.0
 _ZN9KContacts9Addressee18businessPhoneLabelEv@Base 4:5.69.0
 _ZN9KContacts9Addressee18formattedNameLabelEv@Base 4:5.69.0
 _ZN9KContacts9Addressee18insertClientPidMapERKNS_12ClientPidMapE@Base 4:5.69.0
 _ZN9KContacts9Addressee18insertRelationshipERKNS_7RelatedE@Base 4:5.69.0
 _ZN9KContacts9Addressee19additionalNameLabelEv@Base 4:5.69.0
 _ZN9KContacts9Addressee19insertExtraNickNameERKNS_8NickNameE@Base 4:5.69.0
 _ZN9KContacts9Addressee19setBirthdayPropertyERK9QDateTime@Base 5:5.93.0
 _ZN9KContacts9Addressee19setClientPidMapListERK7QVectorINS_12ClientPidMapEE@Base 4:5.69.0
 _ZN9KContacts9Addressee20setExtraNickNameListERK7QVectorINS_8NickNameEE@Base 4:5.69.0
 _ZN9KContacts9Addressee21homeAddressLabelLabelEv@Base 4:5.69.0
 _ZN9KContacts9Addressee22homeAddressRegionLabelEv@Base 4:5.69.0
 _ZN9KContacts9Addressee22homeAddressStreetLabelEv@Base 4:5.69.0
 _ZN9KContacts9Addressee22setPhoneNumbersVariantERK5QListI8QVariantE@Base 5:5.83.0
 _ZN9KContacts9Addressee23homeAddressCountryLabelEv@Base 4:5.69.0
 _ZN9KContacts9Addressee23insertExtraOrganizationERKNS_3OrgE@Base 4:5.69.0
 _ZN9KContacts9Addressee24homeAddressLocalityLabelEv@Base 4:5.69.0
 _ZN9KContacts9Addressee24setExtraOrganizationListERK7QVectorINS_3OrgEE@Base 4:5.69.0
 _ZN9KContacts9Addressee25businessAddressLabelLabelEv@Base 4:5.69.0
 _ZN9KContacts9Addressee26businessAddressRegionLabelEv@Base 4:5.69.0
 _ZN9KContacts9Addressee26businessAddressStreetLabelEv@Base 4:5.69.0
 _ZN9KContacts9Addressee26homeAddressPostalCodeLabelEv@Base 4:5.69.0
 _ZN9KContacts9Addressee27businessAddressCountryLabelEv@Base 4:5.69.0
 _ZN9KContacts9Addressee28businessAddressLocalityLabelEv@Base 4:5.69.0
 _ZN9KContacts9Addressee29homeAddressPostOfficeBoxLabelEv@Base 4:5.69.0
 _ZN9KContacts9Addressee30businessAddressPostalCodeLabelEv@Base 4:5.69.0
 _ZN9KContacts9Addressee33businessAddressPostOfficeBoxLabelEv@Base 4:5.69.0
 _ZN9KContacts9Addressee6setGeoERKNS_3GeoE@Base 4:5.69.0
 _ZN9KContacts9Addressee6setUidERK7QString@Base 4:5.69.0
 _ZN9KContacts9Addressee6setUrlERK4QUrl@Base 4:5.69.0
 _ZN9KContacts9Addressee6setUrlERKNS_18ResourceLocatorUrlE@Base 4:5.69.0
 _ZN9KContacts9Addressee7setKeysERK7QVectorINS_3KeyEE@Base 4:5.69.0
 _ZN9KContacts9Addressee7setKindERK7QString@Base 4:5.69.0
 _ZN9KContacts9Addressee7setLogoERKNS_7PictureE@Base 4:5.69.0
 _ZN9KContacts9Addressee7setNameERK7QString@Base 4:5.69.0
 _ZN9KContacts9Addressee7setNoteERK7QString@Base 4:5.69.0
 _ZN9KContacts9Addressee7setRoleERK7QString@Base 4:5.69.0
 _ZN9KContacts9Addressee7setRoleERKNS_4RoleE@Base 4:5.69.0
 _ZN9KContacts9Addressee8addEmailERKNS_5EmailE@Base 5:5.88.0
 _ZN9KContacts9Addressee8geoLabelEv@Base 4:5.69.0
 _ZN9KContacts9Addressee8mimeTypeEv@Base 4:5.69.0
 _ZN9KContacts9Addressee8setLangsERK7QVectorINS_4LangEE@Base 4:5.69.0
 _ZN9KContacts9Addressee8setPhotoERKNS_7PictureE@Base 4:5.69.0
 _ZN9KContacts9Addressee8setSoundERKNS_5SoundE@Base 4:5.69.0
 _ZN9KContacts9Addressee8setTitleERK7QString@Base 4:5.69.0
 _ZN9KContacts9Addressee8setTitleERKNS_5TitleE@Base 4:5.69.0
 _ZN9KContacts9Addressee8uidLabelEv@Base 4:5.69.0
 _ZN9KContacts9Addressee8urlLabelEv@Base 4:5.69.0
 _ZN9KContacts9Addressee9insertKeyERKNS_3KeyE@Base 4:5.69.0
 _ZN9KContacts9Addressee9isdnLabelEv@Base 4:5.69.0
 _ZN9KContacts9Addressee9logoLabelEv@Base 4:5.69.0
 _ZN9KContacts9Addressee9nameLabelEv@Base 4:5.69.0
 _ZN9KContacts9Addressee9noteLabelEv@Base 4:5.69.0
 _ZN9KContacts9Addressee9removeKeyERKNS_3KeyE@Base 4:5.69.0
 _ZN9KContacts9Addressee9roleLabelEv@Base 4:5.69.0
 _ZN9KContacts9Addressee9setEmailsERK11QStringList@Base 4:5.69.0
 _ZN9KContacts9Addressee9setGenderERKNS_6GenderE@Base 4:5.69.0
 _ZN9KContacts9Addressee9setMailerERK7QString@Base 4:5.69.0
 _ZN9KContacts9Addressee9setOfficeERK7QString@Base 4:5.69.0
 _ZN9KContacts9Addressee9setPrefixERK7QString@Base 4:5.69.0
 _ZN9KContacts9Addressee9setSuffixERK7QString@Base 4:5.69.0
 _ZN9KContacts9AddresseeC1ERKS0_@Base 4:5.69.0
 _ZN9KContacts9AddresseeC1Ev@Base 4:5.69.0
 _ZN9KContacts9AddresseeC2ERKS0_@Base 4:5.69.0
 _ZN9KContacts9AddresseeC2Ev@Base 4:5.69.0
 _ZN9KContacts9AddresseeD1Ev@Base 4:5.69.0
 _ZN9KContacts9AddresseeD2Ev@Base 4:5.69.0
 _ZN9KContacts9AddresseeaSERKS0_@Base 4:5.69.0
 _ZN9KContacts9VCardDrag12fromMimeDataEPK9QMimeDataR10QByteArray@Base 4:5.69.0
 _ZN9KContacts9VCardDrag12fromMimeDataEPK9QMimeDataR7QVectorINS_9AddresseeEE@Base 4:5.69.0
 _ZN9KContacts9VCardDrag16populateMimeDataEP9QMimeDataRK10QByteArray@Base 4:5.69.0
 _ZN9KContacts9VCardDrag16populateMimeDataEP9QMimeDataRK7QVectorINS_9AddresseeEE@Base 4:5.69.0
 _ZN9KContacts9VCardDrag9canDecodeEPK9QMimeData@Base 4:5.69.0
 _ZN9KContacts9VCardLine12addParameterERK7QStringS3_@Base 4:5.69.0
 _ZN9KContacts9VCardLine13addParametersERKNS_12ParameterMapE@Base 5:5.88.0
 _ZN9KContacts9VCardLine13setIdentifierERK7QString@Base 4:5.69.0
 _ZN9KContacts9VCardLine8setGroupERK7QString@Base 4:5.69.0
 _ZN9KContacts9VCardLine8setValueERK8QVariant@Base 4:5.69.0
 _ZN9KContacts9VCardLineC1ERK7QString@Base 4:5.69.0
 _ZN9KContacts9VCardLineC1ERK7QStringRK8QVariant@Base 4:5.69.0
 _ZN9KContacts9VCardLineC1ERKS0_@Base 4:5.69.0
 _ZN9KContacts9VCardLineC1Ev@Base 4:5.69.0
 _ZN9KContacts9VCardLineC2ERK7QString@Base 4:5.69.0
 _ZN9KContacts9VCardLineC2ERK7QStringRK8QVariant@Base 4:5.69.0
 _ZN9KContacts9VCardLineC2ERKS0_@Base 4:5.69.0
 _ZN9KContacts9VCardLineC2Ev@Base 4:5.69.0
 _ZN9KContacts9VCardLineD1Ev@Base 4:5.69.0
 _ZN9KContacts9VCardLineD2Ev@Base 4:5.69.0
 _ZN9KContacts9VCardLineaSERKS0_@Base 4:5.69.0
 _ZN9KContacts9VCardTool10createDateERK5QDateNS_5VCard7VersionE@Base 4:5.69.0
 _ZN9KContacts9VCardTool10createTimeERK5QTimeNS_5VCard7VersionE@Base 4:5.69.0
 _ZN9KContacts9VCardTool13parseDateTimeERK7QStringPb@Base 4:5.69.0
 _ZN9KContacts9VCardTool14createDateTimeERK9QDateTimeNS_5VCard7VersionEb@Base 4:5.69.0
 _ZN9KContacts9VCardToolC1Ev@Base 4:5.69.0
 _ZN9KContacts9VCardToolC2Ev@Base 4:5.69.0
 _ZN9KContacts9VCardToolD1Ev@Base 4:5.69.0
 _ZN9KContacts9VCardToolD2Ev@Base 4:5.69.0
 _ZN9KContactslsER11QDataStreamRKNS_10FieldGroupE@Base 4:5.69.0
 _ZN9KContactslsER11QDataStreamRKNS_11CalendarUrlE@Base 4:5.69.0
 _ZN9KContactslsER11QDataStreamRKNS_11PhoneNumberE@Base 4:5.69.0
 _ZN9KContactslsER11QDataStreamRKNS_12ClientPidMapE@Base 4:5.69.0
 _ZN9KContactslsER11QDataStreamRKNS_18ResourceLocatorUrlE@Base 4:5.69.0
 _ZN9KContactslsER11QDataStreamRKNS_3GeoE@Base 4:5.69.0
 _ZN9KContactslsER11QDataStreamRKNS_3KeyE@Base 4:5.69.0
 _ZN9KContactslsER11QDataStreamRKNS_3OrgE@Base 4:5.69.0
 _ZN9KContactslsER11QDataStreamRKNS_4ImppE@Base 4:5.69.0
 _ZN9KContactslsER11QDataStreamRKNS_4LangE@Base 4:5.69.0
 _ZN9KContactslsER11QDataStreamRKNS_4NoteE@Base 4:5.69.0
 _ZN9KContactslsER11QDataStreamRKNS_4RoleE@Base 4:5.69.0
 _ZN9KContactslsER11QDataStreamRKNS_5EmailE@Base 4:5.69.0
 _ZN9KContactslsER11QDataStreamRKNS_5SoundE@Base 4:5.69.0
 _ZN9KContactslsER11QDataStreamRKNS_5TitleE@Base 4:5.69.0
 _ZN9KContactslsER11QDataStreamRKNS_6GenderE@Base 4:5.69.0
 _ZN9KContactslsER11QDataStreamRKNS_7AddressE@Base 4:5.69.0
 _ZN9KContactslsER11QDataStreamRKNS_7PictureE@Base 4:5.69.0
 _ZN9KContactslsER11QDataStreamRKNS_7RelatedE@Base 4:5.69.0
 _ZN9KContactslsER11QDataStreamRKNS_7SecrecyE@Base 4:5.69.0
 _ZN9KContactslsER11QDataStreamRKNS_8NickNameE@Base 4:5.69.0
 _ZN9KContactslsER11QDataStreamRKNS_8TimeZoneE@Base 4:5.69.0
 _ZN9KContactslsER11QDataStreamRKNS_9AddresseeE@Base 4:5.69.0
 _ZN9KContactsrsER11QDataStreamRNS_10FieldGroupE@Base 4:5.69.0
 _ZN9KContactsrsER11QDataStreamRNS_11CalendarUrlE@Base 4:5.69.0
 _ZN9KContactsrsER11QDataStreamRNS_11PhoneNumberE@Base 4:5.69.0
 _ZN9KContactsrsER11QDataStreamRNS_12ClientPidMapE@Base 4:5.69.0
 _ZN9KContactsrsER11QDataStreamRNS_18ResourceLocatorUrlE@Base 4:5.69.0
 _ZN9KContactsrsER11QDataStreamRNS_3GeoE@Base 4:5.69.0
 _ZN9KContactsrsER11QDataStreamRNS_3KeyE@Base 4:5.69.0
 _ZN9KContactsrsER11QDataStreamRNS_3OrgE@Base 4:5.69.0
 _ZN9KContactsrsER11QDataStreamRNS_4ImppE@Base 4:5.69.0
 _ZN9KContactsrsER11QDataStreamRNS_4LangE@Base 4:5.69.0
 _ZN9KContactsrsER11QDataStreamRNS_4NoteE@Base 4:5.69.0
 _ZN9KContactsrsER11QDataStreamRNS_4RoleE@Base 4:5.69.0
 _ZN9KContactsrsER11QDataStreamRNS_5EmailE@Base 4:5.69.0
 _ZN9KContactsrsER11QDataStreamRNS_5SoundE@Base 4:5.69.0
 _ZN9KContactsrsER11QDataStreamRNS_5TitleE@Base 4:5.69.0
 _ZN9KContactsrsER11QDataStreamRNS_6GenderE@Base 4:5.69.0
 _ZN9KContactsrsER11QDataStreamRNS_7AddressE@Base 4:5.69.0
 _ZN9KContactsrsER11QDataStreamRNS_7PictureE@Base 4:5.69.0
 _ZN9KContactsrsER11QDataStreamRNS_7RelatedE@Base 4:5.69.0
 _ZN9KContactsrsER11QDataStreamRNS_7SecrecyE@Base 4:5.69.0
 _ZN9KContactsrsER11QDataStreamRNS_8NickNameE@Base 4:5.69.0
 _ZN9KContactsrsER11QDataStreamRNS_8TimeZoneE@Base 4:5.69.0
 _ZN9KContactsrsER11QDataStreamRNS_9AddresseeE@Base 4:5.69.0
 (optional=templinst)_ZNK12KConfigGroup9readEntryIiEE5QListIT_EPKcRKS3_@Base 4:5.69.0
 _ZNK9KContacts10FieldGroup10parametersEv@Base 4:5.69.0
 _ZNK9KContacts10FieldGroup14fieldGroupNameEv@Base 4:5.69.0
 _ZNK9KContacts10FieldGroup5valueEv@Base 4:5.69.0
 _ZNK9KContacts10FieldGroup6paramsEv@Base 5:5.88.0
 _ZNK9KContacts10FieldGroup7isValidEv@Base 4:5.69.0
 _ZNK9KContacts10FieldGroup8toStringEv@Base 4:5.69.0
 _ZNK9KContacts10FieldGroupeqERKS0_@Base 4:5.69.0
 _ZNK9KContacts10FieldGroupneERKS0_@Base 4:5.69.0
 _ZNK9KContacts11CalendarUrl10parametersEv@Base 4:5.69.0
 _ZNK9KContacts11CalendarUrl3urlEv@Base 4:5.69.0
 _ZNK9KContacts11CalendarUrl4typeEv@Base 4:5.69.0
 _ZNK9KContacts11CalendarUrl6paramsEv@Base 5:5.88.0
 _ZNK9KContacts11CalendarUrl7isValidEv@Base 4:5.69.0
 _ZNK9KContacts11CalendarUrl8toStringEv@Base 4:5.69.0
 _ZNK9KContacts11CalendarUrleqERKS0_@Base 4:5.69.0
 _ZNK9KContacts11CalendarUrlneERKS0_@Base 4:5.69.0
 _ZNK9KContacts11PhoneNumber10parametersEv@Base 4:5.69.0
 _ZNK9KContacts11PhoneNumber11isPreferredEv@Base 4:5.69.0
 _ZNK9KContacts11PhoneNumber11supportsSmsEv@Base 4:5.69.0
 _ZNK9KContacts11PhoneNumber16normalizedNumberEv@Base 4:5.69.0
 _ZNK9KContacts11PhoneNumber2idEv@Base 4:5.69.0
 _ZNK9KContacts11PhoneNumber4typeEv@Base 4:5.69.0
 _ZNK9KContacts11PhoneNumber6numberEv@Base 4:5.69.0
 _ZNK9KContacts11PhoneNumber6paramsEv@Base 5:5.88.0
 _ZNK9KContacts11PhoneNumber7isEmptyEv@Base 4:5.69.0
 _ZNK9KContacts11PhoneNumber8toStringEv@Base 4:5.69.0
 _ZNK9KContacts11PhoneNumber9typeLabelEv@Base 4:5.69.0
 _ZNK9KContacts11PhoneNumbereqERKS0_@Base 4:5.69.0
 _ZNK9KContacts11PhoneNumberneERKS0_@Base 4:5.69.0
 _ZNK9KContacts12ClientPidMap10parametersEv@Base 4:5.69.0
 _ZNK9KContacts12ClientPidMap12clientPidMapEv@Base 4:5.69.0
 _ZNK9KContacts12ClientPidMap6paramsEv@Base 5:5.88.0
 _ZNK9KContacts12ClientPidMap7isValidEv@Base 4:5.69.0
 _ZNK9KContacts12ClientPidMap8toStringEv@Base 4:5.69.0
 _ZNK9KContacts12ClientPidMapeqERKS0_@Base 4:5.69.0
 _ZNK9KContacts12ClientPidMapneERKS0_@Base 4:5.69.0
 _ZNK9KContacts12ContactGroup16ContactReference14preferredEmailEv@Base 4:5.69.0
 _ZNK9KContacts12ContactGroup16ContactReference3gidEv@Base 4:5.69.0
 _ZNK9KContacts12ContactGroup16ContactReference3uidEv@Base 4:5.69.0
 _ZNK9KContacts12ContactGroup16ContactReference6customERK7QString@Base 4:5.69.0
 _ZNK9KContacts12ContactGroup16ContactReferenceeqERKS1_@Base 4:5.69.0
 _ZNK9KContacts12ContactGroup16contactReferenceEi@Base 4:5.69.0
 _ZNK9KContacts12ContactGroup21ContactGroupReference3uidEv@Base 4:5.69.0
 _ZNK9KContacts12ContactGroup21ContactGroupReference6customERK7QString@Base 4:5.69.0
 _ZNK9KContacts12ContactGroup21ContactGroupReferenceeqERKS1_@Base 4:5.69.0
 _ZNK9KContacts12ContactGroup21contactGroupReferenceEi@Base 4:5.69.0
 _ZNK9KContacts12ContactGroup21contactReferenceCountEv@Base 4:5.69.0
 _ZNK9KContacts12ContactGroup26contactGroupReferenceCountEv@Base 4:5.69.0
 _ZNK9KContacts12ContactGroup2idEv@Base 4:5.69.0
 _ZNK9KContacts12ContactGroup4Data4nameEv@Base 4:5.69.0
 _ZNK9KContacts12ContactGroup4Data5emailEv@Base 4:5.69.0
 _ZNK9KContacts12ContactGroup4Data6customERK7QString@Base 4:5.69.0
 _ZNK9KContacts12ContactGroup4DataeqERKS1_@Base 4:5.69.0
 _ZNK9KContacts12ContactGroup4dataEi@Base 4:5.69.0
 _ZNK9KContacts12ContactGroup4nameEv@Base 4:5.69.0
 _ZNK9KContacts12ContactGroup5countEv@Base 4:5.69.0
 _ZNK9KContacts12ContactGroup9dataCountEv@Base 4:5.69.0
 _ZNK9KContacts12ContactGroupeqERKS0_@Base 4:5.69.0
 _ZNK9KContacts13AddressFormat10usedFieldsEv@Base 5:5.93.0
 _ZNK9KContacts13AddressFormat14elementsForQmlEv@Base 5:5.93.0
 _ZNK9KContacts13AddressFormat14requiredFieldsEv@Base 5:5.93.0
 _ZNK9KContacts13AddressFormat15upperCaseFieldsEv@Base 5:5.93.0
 _ZNK9KContacts13AddressFormat27postalCodeRegularExpressionEv@Base 5:5.93.0
 _ZNK9KContacts13AddressFormat7countryEv@Base 5:5.93.0
 _ZNK9KContacts13AddressFormat8elementsEv@Base 5:5.93.0
 _ZNK9KContacts14VCardConverter10parseVCardERK10QByteArray@Base 4:5.69.0
 _ZNK9KContacts14VCardConverter11createVCardERKNS_9AddresseeENS0_7VersionE@Base 4:5.69.0
 _ZNK9KContacts14VCardConverter11exportVCardERKNS_9AddresseeENS0_7VersionE@Base 4:5.69.0
 _ZNK9KContacts14VCardConverter11parseVCardsERK10QByteArray@Base 4:5.69.0
 _ZNK9KContacts14VCardConverter12createVCardsERK7QVectorINS_9AddresseeEENS0_7VersionE@Base 4:5.69.0
 _ZNK9KContacts14VCardConverter12exportVCardsERK7QVectorINS_9AddresseeEENS0_7VersionE@Base 4:5.69.0
 _ZNK9KContacts15AddresseeHelper10metaObjectEv@Base 4:5.69.0
 _ZNK9KContacts15AddresseeHelper13containsTitleERK7QString@Base 4:5.69.0
 _ZNK9KContacts15AddresseeHelper14containsPrefixERK7QString@Base 4:5.69.0
 _ZNK9KContacts15AddresseeHelper14containsSuffixERK7QString@Base 4:5.69.0
 _ZNK9KContacts15AddresseeHelper17treatAsFamilyNameEv@Base 4:5.69.0
 _ZNK9KContacts18ResourceLocatorUrl10parametersEv@Base 4:5.69.0
 _ZNK9KContacts18ResourceLocatorUrl11isPreferredEv@Base 4:5.69.0
 _ZNK9KContacts18ResourceLocatorUrl3urlEv@Base 4:5.69.0
 _ZNK9KContacts18ResourceLocatorUrl4typeEv@Base 4:5.69.0
 _ZNK9KContacts18ResourceLocatorUrl6paramsEv@Base 5:5.88.0
 _ZNK9KContacts18ResourceLocatorUrl7isValidEv@Base 4:5.69.0
 _ZNK9KContacts18ResourceLocatorUrl8toStringEv@Base 4:5.69.0
 _ZNK9KContacts18ResourceLocatorUrleqERKS0_@Base 4:5.69.0
 _ZNK9KContacts18ResourceLocatorUrlneERKS0_@Base 4:5.69.0
 _ZNK9KContacts20AddressFormatElement11isSeparatorEv@Base 5:5.93.0
 _ZNK9KContacts20AddressFormatElement5fieldEv@Base 5:5.93.0
 _ZNK9KContacts20AddressFormatElement7isFieldEv@Base 5:5.93.0
 _ZNK9KContacts20AddressFormatElement7literalEv@Base 5:5.93.0
 _ZNK9KContacts20AddressFormatElement9isLiteralEv@Base 5:5.93.0
 _ZNK9KContacts3Geo7isValidEv@Base 4:5.69.0
 _ZNK9KContacts3Geo8latitudeEv@Base 4:5.69.0
 _ZNK9KContacts3Geo8toStringEv@Base 4:5.69.0
 _ZNK9KContacts3Geo9longitudeEv@Base 4:5.69.0
 _ZNK9KContacts3GeoeqERKS0_@Base 4:5.69.0
 _ZNK9KContacts3GeoneERKS0_@Base 4:5.69.0
 _ZNK9KContacts3Key10binaryDataEv@Base 4:5.69.0
 _ZNK9KContacts3Key16customTypeStringEv@Base 4:5.69.0
 _ZNK9KContacts3Key2idEv@Base 4:5.69.0
 _ZNK9KContacts3Key4typeEv@Base 4:5.69.0
 _ZNK9KContacts3Key8isBinaryEv@Base 4:5.69.0
 _ZNK9KContacts3Key8textDataEv@Base 4:5.69.0
 _ZNK9KContacts3Key8toStringEv@Base 4:5.69.0
 _ZNK9KContacts3KeyeqERKS0_@Base 4:5.69.0
 _ZNK9KContacts3KeyneERKS0_@Base 4:5.69.0
 _ZNK9KContacts3Org10parametersEv@Base 4:5.69.0
 _ZNK9KContacts3Org12organizationEv@Base 4:5.69.0
 _ZNK9KContacts3Org6paramsEv@Base 5:5.88.0
 _ZNK9KContacts3Org7isValidEv@Base 4:5.69.0
 _ZNK9KContacts3Org8toStringEv@Base 4:5.69.0
 _ZNK9KContacts3OrgeqERKS0_@Base 4:5.69.0
 _ZNK9KContacts3OrgneERKS0_@Base 4:5.69.0
 _ZNK9KContacts4Impp10parametersEv@Base 4:5.69.0
 _ZNK9KContacts4Impp11isPreferredEv@Base 4:5.69.0
 _ZNK9KContacts4Impp11serviceIconEv@Base 4:5.69.0
 _ZNK9KContacts4Impp11serviceTypeEv@Base 4:5.69.0
 _ZNK9KContacts4Impp12serviceLabelEv@Base 4:5.69.0
 _ZNK9KContacts4Impp6paramsEv@Base 5:5.88.0
 _ZNK9KContacts4Impp7addressEv@Base 4:5.69.0
 _ZNK9KContacts4Impp7isValidEv@Base 4:5.69.0
 _ZNK9KContacts4Impp8toStringEv@Base 4:5.69.0
 _ZNK9KContacts4ImppeqERKS0_@Base 4:5.69.0
 _ZNK9KContacts4ImppneERKS0_@Base 4:5.69.0
 _ZNK9KContacts4Lang10parametersEv@Base 4:5.69.0
 _ZNK9KContacts4Lang6paramsEv@Base 5:5.88.0
 _ZNK9KContacts4Lang7isValidEv@Base 4:5.69.0
 _ZNK9KContacts4Lang8languageEv@Base 4:5.69.0
 _ZNK9KContacts4Lang8toStringEv@Base 4:5.69.0
 _ZNK9KContacts4LangeqERKS0_@Base 4:5.69.0
 _ZNK9KContacts4LangneERKS0_@Base 4:5.69.0
 _ZNK9KContacts4Note10parametersEv@Base 4:5.69.0
 _ZNK9KContacts4Note4noteEv@Base 4:5.69.0
 _ZNK9KContacts4Note6paramsEv@Base 5:5.88.0
 _ZNK9KContacts4Note7isValidEv@Base 4:5.69.0
 _ZNK9KContacts4Note8toStringEv@Base 4:5.69.0
 _ZNK9KContacts4NoteeqERKS0_@Base 4:5.69.0
 _ZNK9KContacts4NoteneERKS0_@Base 4:5.69.0
 _ZNK9KContacts4Role10parametersEv@Base 4:5.69.0
 _ZNK9KContacts4Role4roleEv@Base 4:5.69.0
 _ZNK9KContacts4Role6paramsEv@Base 5:5.88.0
 _ZNK9KContacts4Role7isValidEv@Base 4:5.69.0
 _ZNK9KContacts4Role8toStringEv@Base 4:5.69.0
 _ZNK9KContacts4RoleeqERKS0_@Base 4:5.69.0
 _ZNK9KContacts4RoleneERKS0_@Base 4:5.69.0
 _ZNK9KContacts5Email10parametersEv@Base 4:5.69.0
 _ZNK9KContacts5Email11isPreferredEv@Base 4:5.69.0
 _ZNK9KContacts5Email4mailEv@Base 4:5.69.0
 _ZNK9KContacts5Email4typeEv@Base 4:5.69.0
 _ZNK9KContacts5Email6paramsEv@Base 5:5.88.0
 _ZNK9KContacts5Email7isValidEv@Base 4:5.69.0
 _ZNK9KContacts5Email8toStringEv@Base 4:5.69.0
 _ZNK9KContacts5EmaileqERKS0_@Base 4:5.69.0
 _ZNK9KContacts5EmailneERKS0_@Base 4:5.69.0
 _ZNK9KContacts5Sound3urlEv@Base 4:5.69.0
 _ZNK9KContacts5Sound4dataEv@Base 4:5.69.0
 _ZNK9KContacts5Sound7isEmptyEv@Base 4:5.69.0
 _ZNK9KContacts5Sound8isInternEv@Base 4:5.69.0
 _ZNK9KContacts5Sound8toStringEv@Base 4:5.69.0
 _ZNK9KContacts5SoundeqERKS0_@Base 4:5.69.0
 _ZNK9KContacts5SoundneERKS0_@Base 4:5.69.0
 _ZNK9KContacts5Title10parametersEv@Base 4:5.69.0
 _ZNK9KContacts5Title5titleEv@Base 4:5.69.0
 _ZNK9KContacts5Title6paramsEv@Base 5:5.88.0
 _ZNK9KContacts5Title7isValidEv@Base 4:5.69.0
 _ZNK9KContacts5Title8toStringEv@Base 4:5.69.0
 _ZNK9KContacts5TitleeqERKS0_@Base 4:5.69.0
 _ZNK9KContacts5TitleneERKS0_@Base 4:5.69.0
 _ZNK9KContacts6Gender6genderEv@Base 4:5.69.0
 _ZNK9KContacts6Gender7commentEv@Base 4:5.69.0
 _ZNK9KContacts6Gender7isValidEv@Base 4:5.69.0
 _ZNK9KContacts6Gender8toStringEv@Base 4:5.69.0
 _ZNK9KContacts6GendereqERKS0_@Base 4:5.69.0
 _ZNK9KContacts6GenderneERKS0_@Base 4:5.69.0
 _ZNK9KContacts7Address10postalCodeEv@Base 4:5.69.0
 _ZNK9KContacts7Address13postOfficeBoxEv@Base 4:5.69.0
 _ZNK9KContacts7Address16formattedAddressERK7QStringS3_@Base 4:5.69.0
 _ZNK9KContacts7Address22formattedPostalAddressEv@Base 5:5.93.0
 _ZNK9KContacts7Address2idEv@Base 4:5.69.0
 _ZNK9KContacts7Address3geoEv@Base 4:5.69.0
 _ZNK9KContacts7Address4typeEv@Base 4:5.69.0
 _ZNK9KContacts7Address5labelEv@Base 4:5.69.0
 _ZNK9KContacts7Address6regionEv@Base 4:5.69.0
 _ZNK9KContacts7Address6streetEv@Base 4:5.69.0
 _ZNK9KContacts7Address7countryEv@Base 4:5.69.0
 _ZNK9KContacts7Address7isEmptyEv@Base 4:5.69.0
 _ZNK9KContacts7Address8extendedEv@Base 4:5.69.0
 _ZNK9KContacts7Address8localityEv@Base 4:5.69.0
 _ZNK9KContacts7Address8toStringEv@Base 4:5.69.0
 _ZNK9KContacts7Address9formattedENS_18AddressFormatStyleERK7QStringS4_@Base 5:5.93.0
 _ZNK9KContacts7Address9typeLabelEv@Base 4:5.69.0
 _ZNK9KContacts7AddresseqERKS0_@Base 4:5.69.0
 _ZNK9KContacts7AddressneERKS0_@Base 4:5.69.0
 _ZNK9KContacts7Picture3urlEv@Base 4:5.69.0
 _ZNK9KContacts7Picture4dataEv@Base 4:5.69.0
 _ZNK9KContacts7Picture4typeEv@Base 4:5.69.0
 _ZNK9KContacts7Picture7isEmptyEv@Base 4:5.69.0
 _ZNK9KContacts7Picture7rawDataEv@Base 4:5.69.0
 _ZNK9KContacts7Picture8isInternEv@Base 4:5.69.0
 _ZNK9KContacts7Picture8toStringEv@Base 4:5.69.0
 _ZNK9KContacts7PictureeqERKS0_@Base 4:5.69.0
 _ZNK9KContacts7PictureneERKS0_@Base 4:5.69.0
 _ZNK9KContacts7Related10parametersEv@Base 4:5.69.0
 _ZNK9KContacts7Related6paramsEv@Base 5:5.88.0
 _ZNK9KContacts7Related7isValidEv@Base 4:5.69.0
 _ZNK9KContacts7Related7relatedEv@Base 4:5.69.0
 _ZNK9KContacts7Related8toStringEv@Base 4:5.69.0
 _ZNK9KContacts7RelatedeqERKS0_@Base 4:5.69.0
 _ZNK9KContacts7RelatedneERKS0_@Base 4:5.69.0
 _ZNK9KContacts7Secrecy4typeEv@Base 4:5.69.0
 _ZNK9KContacts7Secrecy7isValidEv@Base 4:5.69.0
 _ZNK9KContacts7Secrecy8toStringEv@Base 4:5.69.0
 _ZNK9KContacts7SecrecyeqERKS0_@Base 4:5.69.0
 _ZNK9KContacts7SecrecyneERKS0_@Base 4:5.69.0
 _ZNK9KContacts8NickName10parametersEv@Base 4:5.69.0
 _ZNK9KContacts8NickName6paramsEv@Base 5:5.88.0
 _ZNK9KContacts8NickName7isValidEv@Base 4:5.69.0
 _ZNK9KContacts8NickName8nicknameEv@Base 4:5.69.0
 _ZNK9KContacts8NickName8toStringEv@Base 4:5.69.0
 _ZNK9KContacts8NickNameeqERKS0_@Base 4:5.69.0
 _ZNK9KContacts8NickNameneERKS0_@Base 4:5.69.0
 _ZNK9KContacts8TimeZone6offsetEv@Base 4:5.69.0
 _ZNK9KContacts8TimeZone7isValidEv@Base 4:5.69.0
 _ZNK9KContacts8TimeZone8toStringEv@Base 4:5.69.0
 _ZNK9KContacts8TimeZoneeqERKS0_@Base 4:5.69.0
 _ZNK9KContacts8TimeZoneneERKS0_@Base 4:5.69.0
 _ZNK9KContacts9Addressee10categoriesEv@Base 4:5.69.0
 _ZNK9KContacts9Addressee10departmentEv@Base 4:5.69.0
 _ZNK9KContacts9Addressee10familyNameEv@Base 4:5.69.0
 _ZNK9KContacts9Addressee10professionEv@Base 4:5.69.0
 _ZNK9KContacts9Addressee10sortStringEv@Base 4:5.69.0
 _ZNK9KContacts9Addressee11anniversaryEv@Base 4:5.69.0
 _ZNK9KContacts9Addressee11findAddressERK7QString@Base 4:5.69.0
 _ZNK9KContacts9Addressee11hasCategoryERK7QString@Base 4:5.69.0
 _ZNK9KContacts9Addressee11phoneNumberE6QFlagsINS_11PhoneNumber8TypeFlagEE@Base 4:5.69.0
 _ZNK9KContacts9Addressee11spousesNameEv@Base 4:5.69.0
 _ZNK9KContacts9Addressee11urlsVariantEv@Base 4:5.69.0
 _ZNK9KContacts9Addressee12extraUrlListEv@Base 4:5.69.0
 _ZNK9KContacts9Addressee12imppsVariantEv@Base 4:5.69.0
 _ZNK9KContacts9Addressee12managersNameEv@Base 4:5.69.0
 _ZNK9KContacts9Addressee12organizationEv@Base 4:5.69.0
 _ZNK9KContacts9Addressee12phoneNumbersE6QFlagsINS_11PhoneNumber8TypeFlagEE@Base 4:5.69.0
 _ZNK9KContacts9Addressee12phoneNumbersEv@Base 4:5.69.0
 _ZNK9KContacts9Addressee13assembledNameEv@Base 4:5.69.0
 _ZNK9KContacts9Addressee13emailsVariantEv@Base 4:5.69.0
 _ZNK9KContacts9Addressee13extraLogoListEv@Base 4:5.69.0
 _ZNK9KContacts9Addressee13extraRoleListEv@Base 4:5.69.0
 _ZNK9KContacts9Addressee13formattedNameEv@Base 4:5.69.0
 _ZNK9KContacts9Addressee13relationshipsEv@Base 4:5.69.0
 _ZNK9KContacts9Addressee14additionalNameEv@Base 4:5.69.0
 _ZNK9KContacts9Addressee14assistantsNameEv@Base 4:5.69.0
 _ZNK9KContacts9Addressee14extraPhotoListEv@Base 4:5.69.0
 _ZNK9KContacts9Addressee14extraSoundListEv@Base 4:5.69.0
 _ZNK9KContacts9Addressee14extraTitleListEv@Base 4:5.69.0
 _ZNK9KContacts9Addressee14fieldGroupListEv@Base 4:5.69.0
 _ZNK9KContacts9Addressee14preferredEmailEv@Base 4:5.69.0
 _ZNK9KContacts9Addressee14sourcesUrlListEv@Base 4:5.69.0
 _ZNK9KContacts9Addressee15birthdayHasTimeEv@Base 4:5.69.0
 _ZNK9KContacts9Addressee15calendarUrlListEv@Base 4:5.69.0
 _ZNK9KContacts9Addressee15findPhoneNumberERK7QString@Base 4:5.69.0
 _ZNK9KContacts9Addressee16addressesVariantEv@Base 4:5.69.0
 _ZNK9KContacts9Addressee16clientPidMapListEv@Base 4:5.69.0
 _ZNK9KContacts9Addressee17extraNickNameListEv@Base 4:5.69.0
 _ZNK9KContacts9Addressee19phoneNumbersVariantEv@Base 4:5.69.0
 _ZNK9KContacts9Addressee21extraOrganizationListEv@Base 4:5.69.0
 _ZNK9KContacts9Addressee3geoEv@Base 4:5.69.0
 _ZNK9KContacts9Addressee3keyENS_3Key4TypeERK7QString@Base 4:5.69.0
 _ZNK9KContacts9Addressee3uidEv@Base 4:5.69.0
 _ZNK9KContacts9Addressee3urlEv@Base 4:5.69.0
 _ZNK9KContacts9Addressee4keysENS_3Key4TypeERK7QString@Base 4:5.69.0
 _ZNK9KContacts9Addressee4keysEv@Base 4:5.69.0
 _ZNK9KContacts9Addressee4kindEv@Base 4:5.69.0
 _ZNK9KContacts9Addressee4logoEv@Base 4:5.69.0
 _ZNK9KContacts9Addressee4nameEv@Base 4:5.69.0
 _ZNK9KContacts9Addressee4noteEv@Base 4:5.69.0
 _ZNK9KContacts9Addressee4roleEv@Base 4:5.69.0
 _ZNK9KContacts9Addressee5langsEv@Base 4:5.69.0
 _ZNK9KContacts9Addressee5photoEv@Base 4:5.69.0
 _ZNK9KContacts9Addressee5soundEv@Base 4:5.69.0
 _ZNK9KContacts9Addressee5titleEv@Base 4:5.69.0
 _ZNK9KContacts9Addressee6customERK7QStringS3_@Base 4:5.69.0
 _ZNK9KContacts9Addressee6emailsEv@Base 4:5.69.0
 _ZNK9KContacts9Addressee6genderEv@Base 4:5.69.0
 _ZNK9KContacts9Addressee6mailerEv@Base 4:5.69.0
 _ZNK9KContacts9Addressee6officeEv@Base 4:5.69.0
 _ZNK9KContacts9Addressee6prefixEv@Base 4:5.69.0
 _ZNK9KContacts9Addressee6suffixEv@Base 4:5.69.0
 _ZNK9KContacts9Addressee7addressE6QFlagsINS_7Address8TypeFlagEE@Base 4:5.69.0
 _ZNK9KContacts9Addressee7changedEv@Base 4:5.69.0
 _ZNK9KContacts9Addressee7customsEv@Base 4:5.69.0
 _ZNK9KContacts9Addressee7findKeyERK7QString@Base 4:5.69.0
 _ZNK9KContacts9Addressee7isEmptyEv@Base 4:5.69.0
 _ZNK9KContacts9Addressee7membersEv@Base 4:5.69.0
 _ZNK9KContacts9Addressee7secrecyEv@Base 4:5.69.0
 _ZNK9KContacts9Addressee8birthdayEv@Base 4:5.69.0
 _ZNK9KContacts9Addressee8blogFeedEv@Base 4:5.69.0
 _ZNK9KContacts9Addressee8imppListEv@Base 4:5.69.0
 _ZNK9KContacts9Addressee8nickNameEv@Base 4:5.69.0
 _ZNK9KContacts9Addressee8realNameEv@Base 4:5.69.0
 _ZNK9KContacts9Addressee8revisionEv@Base 4:5.69.0
 _ZNK9KContacts9Addressee8timeZoneEv@Base 4:5.69.0
 _ZNK9KContacts9Addressee8toStringEv@Base 4:5.69.0
 _ZNK9KContacts9Addressee9addressesE6QFlagsINS_7Address8TypeFlagEE@Base 4:5.69.0
 _ZNK9KContacts9Addressee9addressesEv@Base 4:5.69.0
 _ZNK9KContacts9Addressee9emailListEv@Base 4:5.69.0
 _ZNK9KContacts9Addressee9fullEmailERK7QString@Base 4:5.69.0
 _ZNK9KContacts9Addressee9givenNameEv@Base 4:5.69.0
 _ZNK9KContacts9Addressee9productIdEv@Base 4:5.69.0
 _ZNK9KContacts9AddresseeeqERKS0_@Base 4:5.69.0
 _ZNK9KContacts9AddresseeneERKS0_@Base 4:5.69.0
 _ZNK9KContacts9VCardLine10identifierEv@Base 4:5.69.0
 _ZNK9KContacts9VCardLine10parametersERK7QString@Base 4:5.69.0
 _ZNK9KContacts9VCardLine12parameterMapEv@Base 4:5.69.0
 _ZNK9KContacts9VCardLine13parameterListEv@Base 4:5.69.0
 _ZNK9KContacts9VCardLine5groupEv@Base 4:5.69.0
 _ZNK9KContacts9VCardLine5valueEv@Base 4:5.69.0
 _ZNK9KContacts9VCardLine8hasGroupEv@Base 4:5.69.0
 _ZNK9KContacts9VCardLine9parameterERK7QString@Base 4:5.69.0
 _ZNK9KContacts9VCardLineeqERKS0_@Base 4:5.69.0
 _ZNK9KContacts9VCardTool10parseSoundERKNS_9VCardLineE@Base 4:5.69.0
 _ZNK9KContacts9VCardTool11createSoundERKNS_5SoundENS_5VCard7VersionE@Base 4:5.69.0
 _ZNK9KContacts9VCardTool11parseVCardsERK10QByteArray@Base 4:5.69.0
 _ZNK9KContacts9VCardTool11splitStringE5QCharRK7QString@Base 4:5.69.0
 _ZNK9KContacts9VCardTool12addParameterEPNS_9VCardLineENS_5VCard7VersionERK7QStringRK11QStringList@Base 5:5.88.0
 _ZNK9KContacts9VCardTool12createVCardsERK7QVectorINS_9AddresseeEENS_5VCard7VersionE@Base 4:5.69.0
 _ZNK9KContacts9VCardTool12createVCardsERK7QVectorINS_9AddresseeEENS_5VCard7VersionEb@Base 4:5.69.0
 _ZNK9KContacts9VCardTool12exportVCardsERK7QVectorINS_9AddresseeEENS_5VCard7VersionE@Base 4:5.69.0
 _ZNK9KContacts9VCardTool12parsePictureERKNS_9VCardLineE@Base 4:5.69.0
 _ZNK9KContacts9VCardTool12parseSecrecyERKNS_9VCardLineE@Base 4:5.69.0
 _ZNK9KContacts9VCardTool13createPictureERK7QStringRKNS_7PictureENS_5VCard7VersionE@Base 4:5.69.0
 _ZNK9KContacts9VCardTool13createSecrecyERKNS_7SecrecyE@Base 4:5.69.0
 _ZNK9KContacts9VCardTool14processCustomsERK11QStringListNS_5VCard7VersionEPS4_b@Base 5:5.88.0
 _ZNK9KContacts9VCardTool16processAddressesERK7QVectorINS_7AddressEENS_5VCard7VersionEPS6_@Base 5:5.88.0
 _ZNK9KContacts9VCardTool16processEmailListERK7QVectorINS_5EmailEENS_5VCard7VersionEPS6_@Base 5:5.88.0
 _ZNK9KContacts9VCardTool19processPhoneNumbersERK7QVectorINS_11PhoneNumberEENS_5VCard7VersionEPS6_@Base 5:5.88.0
 _ZNK9KContacts9VCardTool20processOrganizationsERKNS_9AddresseeENS_5VCard7VersionEPS4_@Base 5:5.88.0
 _ZNK9KContacts9VCardTool24normalizeImppServiceTypeERK7QString@Base 4:5.69.0
 _ZNK9KContacts9VCardTool8parseKeyERKNS_9VCardLineE@Base 4:5.69.0
 _ZNK9KContacts9VCardTool9createKeyERKNS_3KeyENS_5VCard7VersionE@Base 4:5.69.0
 _ZNSt6vectorIN9KContacts20AddressFormatElementESaIS1_EE17_M_realloc_insertIJRKS1_EEEvN9__gnu_cxx17__normal_iteratorIPS1_S3_EEDpOT_@Base 5:5.93.0
 _ZNSt6vectorIN9KContacts20AddressFormatElementESaIS1_EE17_M_realloc_insertIJS1_EEEvN9__gnu_cxx17__normal_iteratorIPS1_S3_EEDpOT_@Base 5:5.93.0
 _ZTIN9KContacts15AddresseeHelperE@Base 4:5.69.0
 _ZTIN9KContacts5FieldE@Base 4:5.69.0
 _ZTSN9KContacts15AddresseeHelperE@Base 4:5.69.0
 _ZTSN9KContacts5FieldE@Base 4:5.69.0
 _ZTVN9KContacts15AddresseeHelperE@Base 4:5.69.0
 _ZTVN9KContacts5FieldE@Base 4:5.69.0
